Certificate:
    Data:
        Version: 3 (0x2)
        Serial Number:
            3a:00:0d:3e:31:e9:04:5e:ac:57:90:a1:82:18:9f:3a
        Signature Algorithm: sha256WithRSAEncryption
        Issuer: CN=Atharva
        Validity
            Not Before: Oct 30 12:19:28 2024 GMT
            Not After : Feb  2 12:19:28 2027 GMT
        Subject: CN=client
        Subject Public Key Info:
            Public Key Algorithm: rsaEncryption
                Public-Key: (2048 bit)
                Modulus:
                    00:cd:aa:c5:25:89:db:d2:9b:81:a6:ce:40:26:56:
                    a9:40:c9:fc:9d:29:6c:d7:61:ad:a4:98:7e:4e:33:
                    cc:f0:eb:b9:20:7f:65:e4:9c:c7:a7:a6:0f:15:fc:
                    c2:80:2a:d6:24:bc:aa:6e:d7:77:5c:55:ee:0c:87:
                    70:87:61:5f:e4:1b:cc:18:f7:6e:da:fd:42:9e:fc:
                    04:50:21:fc:e7:43:38:9a:43:56:03:84:92:c4:e7:
                    b7:45:ea:48:ec:d8:02:36:a0:6b:5b:b5:7c:fc:8c:
                    75:e5:6d:31:cc:c3:a9:2a:e8:62:99:6f:3e:4b:3e:
                    10:2c:a2:3e:a0:66:bd:da:38:85:59:1f:83:1a:1b:
                    70:ab:b8:7b:26:5b:27:b3:9a:84:28:5a:9d:bb:e6:
                    24:d9:bd:8c:31:db:a9:9b:16:f9:ed:47:61:1c:88:
                    4c:a2:7d:cd:3c:2c:31:16:e4:10:91:b5:c7:b9:6d:
                    85:72:e6:b1:8a:f1:d7:ad:54:61:c1:96:c5:fe:1d:
                    16:1d:9a:3a:2a:8f:dd:4e:b1:0f:08:2d:c5:cb:3c:
                    47:58:e7:8f:e9:9e:35:86:85:d8:bf:49:c2:8a:77:
                    9f:b8:16:b3:be:69:ac:85:a3:01:45:74:79:30:24:
                    29:71:ad:45:b6:f9:f2:3c:77:c2:e1:e3:87:36:fe:
                    f7:e1
                Exponent: 65537 (0x10001)
        X509v3 extensions:
            X509v3 Basic Constraints: 
                CA:FALSE
            X509v3 Subject Key Identifier: 
                10:61:7E:EA:BE:A1:EC:C5:64:8B:05:FF:33:C6:71:15:19:67:80:22
            X509v3 Authority Key Identifier: 
                keyid:B3:F8:AA:7F:77:65:58:33:B8:D0:3F:E9:68:EC:40:39:05:CF:82:5C
                DirName:/CN=Atharva
                serial:06:AC:99:8D:20:65:D5:2C:3D:94:55:A2:C7:79:49:49:C3:A6:FD:6E
            X509v3 Extended Key Usage: 
                TLS Web Client Authentication
            X509v3 Key Usage: 
                Digital Signature
    Signature Algorithm: sha256WithRSAEncryption
    Signature Value:
        6f:a8:0d:3e:17:04:13:58:ca:67:e3:5e:d5:b8:97:ff:b8:ce:
        8e:0e:24:49:5f:bb:b7:07:c9:9d:0f:7a:1f:92:da:49:eb:96:
        76:fc:b4:45:75:40:42:64:88:fb:2c:f4:f8:b2:f7:f4:5d:24:
        3a:61:cb:f9:e6:79:94:af:d7:bd:9c:5e:a1:33:82:cd:e5:b2:
        e3:28:ba:ac:0d:0b:18:58:8c:ff:16:a8:b5:05:58:74:ba:28:
        99:d8:d2:cb:d9:7d:5b:b8:39:08:f0:a7:4a:b7:a3:09:de:b3:
        20:a0:8f:6a:68:7a:34:07:6c:dc:e8:c4:55:66:2c:d9:75:79:
        9d:50:0f:c5:f1:99:7d:0d:cb:a1:d9:ca:9b:7a:16:3f:12:9d:
        84:ea:80:c3:10:b0:49:f1:91:f6:b7:3e:67:75:b0:11:68:e2:
        64:72:33:f0:44:18:91:2b:7d:5a:be:a8:73:46:a3:46:48:62:
        34:41:15:56:0f:d8:f5:25:36:74:3c:7d:0b:cd:a4:13:3b:0b:
        46:a4:3a:cc:be:b2:74:3f:39:c6:b3:8d:de:c8:17:29:24:8b:
        2f:0a:f6:6d:9f:0e:ab:b1:bc:56:d0:f1:2a:57:1f:84:03:de:
        16:1a:72:60:5d:19:05:8d:fa:e9:cf:8c:9d:5a:71:26:61:23:
        eb:76:fa:15
-----BEGIN CERTIFICATE-----
MIIDTDCCAjSgAwIBAgIQOgANPjHpBF6sV5ChghifOjANBgkqhkiG9w0BAQsFADAS
MRAwDgYDVQQDDAdBdGhhcnZhMB4XDTI0MTAzMDEyMTkyOFoXDTI3MDIwMjEyMTky
OFowETEPMA0GA1UEAwwGY2xpZW50MIIBIjANBgkqhkiG9w0BAQEFAAOCAQ8AMIIB
CgKCAQEAzarFJYnb0puBps5AJlapQMn8nSls12GtpJh+TjPM8Ou5IH9l5JzHp6YP
FfzCgCrWJLyqbtd3XFXuDIdwh2Ff5BvMGPdu2v1CnvwEUCH850M4mkNWA4SSxOe3
RepI7NgCNqBrW7V8/Ix15W0xzMOpKuhimW8+Sz4QLKI+oGa92jiFWR+DGhtwq7h7
Jlsns5qEKFqdu+Yk2b2MMdupmxb57UdhHIhMon3NPCwxFuQQkbXHuW2FcuaxivHX
rVRhwZbF/h0WHZo6Ko/dTrEPCC3FyzxHWOeP6Z41hoXYv0nCinefuBazvmmshaMB
RXR5MCQpca1FtvnyPHfC4eOHNv734QIDAQABo4GeMIGbMAkGA1UdEwQCMAAwHQYD
VR0OBBYEFBBhfuq+oezFZIsF/zPGcRUZZ4AiME0GA1UdIwRGMESAFLP4qn93ZVgz
uNA/6WjsQDkFz4JcoRakFDASMRAwDgYDVQQDDAdBdGhhcnZhghQGrJmNIGXVLD2U
VaLHeUlJw6b9bjATBgNVHSUEDDAKBggrBgEFBQcDAjALBgNVHQ8EBAMCB4AwDQYJ
KoZIhvcNAQELBQADggEBAG+oDT4XBBNYymfjXtW4l/+4zo4OJElfu7cHyZ0Peh+S
2knrlnb8tEV1QEJkiPss9Piy9/RdJDphy/nmeZSv172cXqEzgs3lsuMouqwNCxhY
jP8WqLUFWHS6KJnY0svZfVu4OQjwp0q3ownesyCgj2poejQHbNzoxFVmLNl1eZ1Q
D8XxmX0Ny6HZypt6Fj8SnYTqgMMQsEnxkfa3Pmd1sBFo4mRyM/BEGJErfVq+qHNG
o0ZIYjRBFVYP2PUlNnQ8fQvNpBM7C0akOsy+snQ/Ocazjd7IFykkiy8K9m2fDqux
vFbQ8SpXH4QD3hYacmBdGQWN+unPjJ1acSZhI+t2+hU=
-----END CERTIFICATE-----
